target datalayout = "e-m:e-p270:32:32-p271:32:32-p272:64:64-i64:64-i128:128-f80:128-n8:16:32:64-S128"
target triple = "x86_64-pc-linux-gnu"

@.str.43 = private unnamed_addr constant [7 x i8] c"export\00", align 1
@.str.44 = private unnamed_addr constant [7 x i8] c"import\00", align 1

; Function Attrs: mustprogress nounwind uwtable
define dso_local noundef zeroext i1 @_ZN14V3OutFormatter10tokenMatchEPKcS1_(ptr noundef %0, ptr noundef %1) #7 align 2 {
  %3 = alloca i1, align 1
  %4 = alloca ptr, align 8
  %5 = alloca ptr, align 8
  store ptr %0, ptr %4, align 8, !tbaa !35
  store ptr %1, ptr %5, align 8, !tbaa !35
  br label %6

6:                                                ; preds = %20, %2
  %7 = load ptr, ptr %5, align 8, !tbaa !35
  %8 = load i8, ptr %7, align 1, !tbaa !52
  %9 = icmp ne i8 %8, 0
  br i1 %9, label %10, label %18

10:                                               ; preds = %6
  %11 = load ptr, ptr %5, align 8, !tbaa !35
  %12 = load i8, ptr %11, align 1, !tbaa !52
  %13 = sext i8 %12 to i32
  %14 = load ptr, ptr %4, align 8, !tbaa !35
  %15 = load i8, ptr %14, align 1, !tbaa !52
  %16 = sext i8 %15 to i32
  %17 = icmp eq i32 %13, %16
  br label %18

18:                                               ; preds = %10, %6
  %19 = phi i1 [ false, %6 ], [ %17, %10 ]
  br i1 %19, label %20, label %25

20:                                               ; preds = %18
  %21 = load ptr, ptr %4, align 8, !tbaa !35
  %22 = getelementptr inbounds nuw i8, ptr %21, i32 1
  store ptr %22, ptr %4, align 8, !tbaa !35
  %23 = load ptr, ptr %5, align 8, !tbaa !35
  %24 = getelementptr inbounds nuw i8, ptr %23, i32 1
  store ptr %24, ptr %5, align 8, !tbaa !35
  br label %6, !llvm.loop !176

25:                                               ; preds = %18
  %26 = load ptr, ptr %5, align 8, !tbaa !35
  %27 = load i8, ptr %26, align 1, !tbaa !52
  %28 = icmp ne i8 %27, 0
  br i1 %28, label %29, label %30

29:                                               ; preds = %25
  store i1 false, ptr %3, align 1
  br label %42

30:                                               ; preds = %25
  %31 = load ptr, ptr %4, align 8, !tbaa !35
  %32 = load i8, ptr %31, align 1, !tbaa !52
  %33 = icmp ne i8 %32, 0
  br i1 %33, label %34, label %41

34:                                               ; preds = %30
  %35 = load ptr, ptr %4, align 8, !tbaa !35
  %36 = load i8, ptr %35, align 1, !tbaa !52
  %37 = sext i8 %36 to i32
  %38 = call i32 @isspace(i32 noundef %37) #25
  %39 = icmp ne i32 %38, 0
  br i1 %39, label %41, label %40

40:                                               ; preds = %34
  store i1 false, ptr %3, align 1
  br label %42

41:                                               ; preds = %34, %30
  store i1 true, ptr %3, align 1
  br label %42

42:                                               ; preds = %41, %40, %29
  %43 = load i1, ptr %3, align 1
  ret i1 %43
}

; Function Attrs: mustprogress nounwind uwtable
define dso_local noundef zeroext i1 @_ZN14V3OutFormatter13tokenNotStartEPKc(ptr noundef %0) #7 align 2 {
  %2 = alloca ptr, align 8
  store ptr %0, ptr %2, align 8, !tbaa !35
  %3 = load ptr, ptr %2, align 8, !tbaa !35
  %4 = call noundef zeroext i1 @_ZN14V3OutFormatter10tokenMatchEPKcS1_(ptr noundef %3, ptr noundef @.str.43)
  br i1 %4, label %8, label %5

5:                                                ; preds = %1
  %6 = load ptr, ptr %2, align 8, !tbaa !35
  %7 = call noundef zeroext i1 @_ZN14V3OutFormatter10tokenMatchEPKcS1_(ptr noundef %6, ptr noundef @.str.44)
  br label %8

8:                                                ; preds = %5, %1
  %9 = phi i1 [ true, %1 ], [ %7, %5 ]
  ret i1 %9
}