; Function Attrs: mustprogress nofree nounwind willreturn memory(read) uwtable
define dso_local noundef zeroext i1 @_ZN14V3OutFormatter13tokenNotStartEPKc(ptr noundef readonly captures(none) %0) local_unnamed_addr #12 align 2 {
  %scevgep = getelementptr i8, ptr %0, i64 6
  br label %.lr.ph.i

.lr.ph.i:                                         ; preds = %5, %1
  %2 = phi i8 [ %7, %5 ], [ 101, %1 ]
  %.019.i.idx = phi i64 [ %.019.i.add, %5 ], [ 0, %1 ]
  %.0918.i = phi ptr [ %6, %5 ], [ %0, %1 ]
  %3 = load i8, ptr %.0918.i, align 1, !tbaa !43
  %4 = icmp eq i8 %2, %3
  br i1 %4, label %5, label %.lr.ph.i2.preheader

5:                                                ; preds = %.lr.ph.i
  %6 = getelementptr inbounds nuw i8, ptr %.0918.i, i64 1
  %.019.i.add = add nuw nsw i64 %.019.i.idx, 1
  %.ptr = getelementptr inbounds nuw i8, ptr @.str.43, i64 %.019.i.add
  %7 = load i8, ptr %.ptr, align 1, !tbaa !43
  %exitcond = icmp eq i64 %.019.i.add, 6
  br i1 %exitcond, label %._crit_edge.i, label %.lr.ph.i, !llvm.loop !175

._crit_edge.i:                                    ; preds = %5
  %8 = load i8, ptr %scevgep, align 1, !tbaa !43
  %.not14.i = icmp eq i8 %8, 0
  br i1 %.not14.i, label %_ZN14V3OutFormatter10tokenMatchEPKcS1_.exit, label %9

9:                                                ; preds = %._crit_edge.i
  %10 = sext i8 %8 to i32
  %11 = tail call i32 @isspace(i32 noundef %10) #33
  %.not15.i = icmp eq i32 %11, 0
  br i1 %.not15.i, label %.lr.ph.i2.preheader, label %_ZN14V3OutFormatter10tokenMatchEPKcS1_.exit

.lr.ph.i2.preheader:                              ; preds = %.lr.ph.i, %9
  br label %.lr.ph.i2

.lr.ph.i2:                                        ; preds = %.lr.ph.i2.preheader, %15
  %12 = phi i8 [ %17, %15 ], [ 105, %.lr.ph.i2.preheader ]
  %.019.i3.idx = phi i64 [ %.019.i3.add, %15 ], [ 0, %.lr.ph.i2.preheader ]
  %.0918.i4 = phi ptr [ %16, %15 ], [ %0, %.lr.ph.i2.preheader ]
  %13 = load i8, ptr %.0918.i4, align 1, !tbaa !43
  %14 = icmp eq i8 %12, %13
  br i1 %14, label %15, label %_ZN14V3OutFormatter10tokenMatchEPKcS1_.exit

15:                                               ; preds = %.lr.ph.i2
  %16 = getelementptr inbounds nuw i8, ptr %.0918.i4, i64 1
  %.019.i3.add = add nuw nsw i64 %.019.i3.idx, 1
  %.ptr16 = getelementptr inbounds nuw i8, ptr @.str.44, i64 %.019.i3.add
  %17 = load i8, ptr %.ptr16, align 1, !tbaa !43
  %exitcond15 = icmp eq i64 %.019.i3.add, 6
  br i1 %exitcond15, label %._crit_edge.i7, label %.lr.ph.i2, !llvm.loop !175

._crit_edge.i7:                                   ; preds = %15
  %18 = load i8, ptr %scevgep, align 1, !tbaa !43
  %.not14.i8 = icmp eq i8 %18, 0
  br i1 %.not14.i8, label %22, label %19

19:                                               ; preds = %._crit_edge.i7
  %20 = sext i8 %18 to i32
  %21 = tail call i32 @isspace(i32 noundef %20) #33
  %.not15.i9 = icmp eq i32 %21, 0
  br i1 %.not15.i9, label %_ZN14V3OutFormatter10tokenMatchEPKcS1_.exit, label %22

22:                                               ; preds = %19, %._crit_edge.i7
  br label %_ZN14V3OutFormatter10tokenMatchEPKcS1_.exit

_ZN14V3OutFormatter10tokenMatchEPKcS1_.exit:      ; preds = %.lr.ph.i2, %22, %19, %9, %._crit_edge.i
  %23 = phi i1 [ true, %._crit_edge.i ], [ true, %9 ], [ true, %22 ], [ false, %19 ], [ false, %.lr.ph.i2 ]
  ret i1 %23
}